target datalayout = "e-m:e-p270:32:32-p271:32:32-p272:64:64-i64:64-i128:128-f80:128-n8:16:32:64-S128"
target triple = "x86_64-unknown-linux-gnu"

%struct.QTailQLink = type { ptr, ptr }
%struct.USBPacket = type { i32, i64, ptr, i32, %struct.QEMUIOVector, i64, i8, i8, i32, i32, i32, ptr, %union.anon.10, %union.anon.11 }
%struct.QEMUIOVector = type { ptr, i32, %union.anon.7 }
%union.anon.7 = type { %struct.anon.8 }
%struct.anon.8 = type { i32, %struct.iovec }
%struct.iovec = type { ptr, i64 }
%union.anon.10 = type { %struct.QTailQLink }
%union.anon.11 = type { %struct.QTailQLink }
%struct.QEMUSGList = type { ptr, i32, i32, i64, ptr, ptr }
%struct.EHCIQueue = type { ptr, %union.anon.16, i32, i64, i32, i32, %struct.EHCIqh, i32, i32, i32, ptr, %union.anon.17 }
%union.anon.16 = type { %struct.QTailQLink }
%struct.EHCIqh = type { i32, i32, i32, i32, i32, i32, i32, [5 x i32] }
%union.anon.17 = type { %struct.QTailQLink }
%struct.timeval = type { i64, i64 }
%struct.EHCIPacket = type { ptr, %union.anon.18, %struct.EHCIqtd, i32, %struct.USBPacket, %struct.QEMUSGList, i32, i32 }
%union.anon.18 = type { %struct.QTailQLink }
%struct.EHCIqtd = type { i32, i32, i32, [5 x i32] }

@trace_events_enabled_count = external global i32, align 4
@message_with_timestamp = external global i8, align 1
@qemu_loglevel = external global i32, align 4
@_TRACE_USB_EHCI_PACKET_ACTION_DSTATE = external global i16, align 2
@.str.86 = private unnamed_addr constant [51 x i8] c"%d@%zu.%06zu:usb_ehci_packet_action q %p p %p: %s\0A\00", align 1
@.str.87 = private unnamed_addr constant [38 x i8] c"usb_ehci_packet_action q %p p %p: %s\0A\00", align 1
@.str.116 = private unnamed_addr constant [6 x i8] c"alloc\00", align 1

; Function Attrs: nounwind sspstrong uwtable
define internal zeroext i1 @qemu_loglevel_mask(i32 noundef %mask) #0 {
entry:
  %mask.addr = alloca i32, align 4
  store i32 %mask, ptr %mask.addr, align 4
  %0 = load i32, ptr @qemu_loglevel, align 4
  %1 = load i32, ptr %mask.addr, align 4
  %and = and i32 %0, %1
  %cmp = icmp ne i32 %and, 0
  ret i1 %cmp
}

; Function Attrs: nounwind sspstrong uwtable
define internal void @_nocheck__trace_usb_ehci_packet_action(ptr noundef %q, ptr noundef %p, ptr noundef %action) #0 {
entry:
  %q.addr = alloca ptr, align 8
  %p.addr = alloca ptr, align 8
  %action.addr = alloca ptr, align 8
  %_now = alloca %struct.timeval, align 8
  store ptr %q, ptr %q.addr, align 8
  store ptr %p, ptr %p.addr, align 8
  store ptr %action, ptr %action.addr, align 8
  %0 = load i32, ptr @trace_events_enabled_count, align 4
  %tobool = icmp ne i32 %0, 0
  %lnot = xor i1 %tobool, true
  %lnot1 = xor i1 %lnot, true
  %lnot.ext = zext i1 %lnot1 to i32
  %conv = sext i32 %lnot.ext to i64
  %tobool2 = icmp ne i64 %conv, 0
  br i1 %tobool2, label %land.lhs.true, label %if.end11

land.lhs.true:                                    ; preds = %entry
  %1 = load i16, ptr @_TRACE_USB_EHCI_PACKET_ACTION_DSTATE, align 2
  %conv3 = zext i16 %1 to i32
  %tobool4 = icmp ne i32 %conv3, 0
  br i1 %tobool4, label %land.lhs.true5, label %if.end11

land.lhs.true5:                                   ; preds = %land.lhs.true
  %call = call zeroext i1 @qemu_loglevel_mask(i32 noundef 32768)
  br i1 %call, label %if.then, label %if.end11

if.then:                                          ; preds = %land.lhs.true5
  %2 = load i8, ptr @message_with_timestamp, align 1
  %tobool7 = trunc i8 %2 to i1
  br i1 %tobool7, label %if.then8, label %if.else

if.then8:                                         ; preds = %if.then
  %call9 = call i32 @gettimeofday(ptr noundef %_now, ptr noundef null) #10
  %call10 = call i32 @qemu_get_thread_id()
  %tv_sec = getelementptr inbounds %struct.timeval, ptr %_now, i32 0, i32 0
  %3 = load i64, ptr %tv_sec, align 8
  %tv_usec = getelementptr inbounds %struct.timeval, ptr %_now, i32 0, i32 1
  %4 = load i64, ptr %tv_usec, align 8
  %5 = load ptr, ptr %q.addr, align 8
  %6 = load ptr, ptr %p.addr, align 8
  %7 = load ptr, ptr %action.addr, align 8
  call void (ptr, ...) @qemu_log(ptr noundef @.str.86, i32 noundef %call10, i64 noundef %3, i64 noundef %4, ptr noundef %5, ptr noundef %6, ptr noundef %7)
  br label %if.end

if.else:                                          ; preds = %if.then
  %8 = load ptr, ptr %q.addr, align 8
  %9 = load ptr, ptr %p.addr, align 8
  %10 = load ptr, ptr %action.addr, align 8
  call void (ptr, ...) @qemu_log(ptr noundef @.str.87, ptr noundef %8, ptr noundef %9, ptr noundef %10)
  br label %if.end

if.end:                                           ; preds = %if.else, %if.then8
  br label %if.end11

if.end11:                                         ; preds = %if.end, %land.lhs.true5, %land.lhs.true, %entry
  ret void
}

; Function Attrs: nounwind sspstrong uwtable
define internal void @trace_usb_ehci_packet_action(ptr noundef %q, ptr noundef %p, ptr noundef %action) #0 {
entry:
  %q.addr = alloca ptr, align 8
  %p.addr = alloca ptr, align 8
  %action.addr = alloca ptr, align 8
  store ptr %q, ptr %q.addr, align 8
  store ptr %p, ptr %p.addr, align 8
  store ptr %action, ptr %action.addr, align 8
  %0 = load ptr, ptr %q.addr, align 8
  %1 = load ptr, ptr %p.addr, align 8
  %2 = load ptr, ptr %action.addr, align 8
  call void @_nocheck__trace_usb_ehci_packet_action(ptr noundef %0, ptr noundef %1, ptr noundef %2)
  ret void
}

; Function Attrs: nounwind sspstrong uwtable
define internal ptr @ehci_alloc_packet(ptr noundef %q) #0 {
entry:
  %q.addr = alloca ptr, align 8
  %p = alloca ptr, align 8
  store ptr %q, ptr %q.addr, align 8
  %call = call noalias ptr @g_malloc0_n(i64 noundef 1, i64 noundef 248) #14
  store ptr %call, ptr %p, align 8
  %0 = load ptr, ptr %q.addr, align 8
  %1 = load ptr, ptr %p, align 8
  %queue = getelementptr inbounds %struct.EHCIPacket, ptr %1, i32 0, i32 0
  store ptr %0, ptr %queue, align 8
  %2 = load ptr, ptr %p, align 8
  %packet = getelementptr inbounds %struct.EHCIPacket, ptr %2, i32 0, i32 4
  call void @usb_packet_init(ptr noundef %packet)
  br label %do.body

do.body:                                          ; preds = %entry
  %3 = load ptr, ptr %p, align 8
  %next = getelementptr inbounds %struct.EHCIPacket, ptr %3, i32 0, i32 1
  store ptr null, ptr %next, align 8
  %4 = load ptr, ptr %q.addr, align 8
  %packets = getelementptr inbounds %struct.EHCIQueue, ptr %4, i32 0, i32 11
  %tql_prev = getelementptr inbounds %struct.QTailQLink, ptr %packets, i32 0, i32 1
  %5 = load ptr, ptr %tql_prev, align 8
  %6 = load ptr, ptr %p, align 8
  %next1 = getelementptr inbounds %struct.EHCIPacket, ptr %6, i32 0, i32 1
  %tql_prev2 = getelementptr inbounds %struct.QTailQLink, ptr %next1, i32 0, i32 1
  store ptr %5, ptr %tql_prev2, align 8
  %7 = load ptr, ptr %p, align 8
  %8 = load ptr, ptr %q.addr, align 8
  %packets3 = getelementptr inbounds %struct.EHCIQueue, ptr %8, i32 0, i32 11
  %tql_prev4 = getelementptr inbounds %struct.QTailQLink, ptr %packets3, i32 0, i32 1
  %9 = load ptr, ptr %tql_prev4, align 8
  %tql_next = getelementptr inbounds %struct.QTailQLink, ptr %9, i32 0, i32 0
  store ptr %7, ptr %tql_next, align 8
  %10 = load ptr, ptr %p, align 8
  %next5 = getelementptr inbounds %struct.EHCIPacket, ptr %10, i32 0, i32 1
  %11 = load ptr, ptr %q.addr, align 8
  %packets6 = getelementptr inbounds %struct.EHCIQueue, ptr %11, i32 0, i32 11
  %tql_prev7 = getelementptr inbounds %struct.QTailQLink, ptr %packets6, i32 0, i32 1
  store ptr %next5, ptr %tql_prev7, align 8
  br label %do.end

do.end:                                           ; preds = %do.body
  %12 = load ptr, ptr %p, align 8
  %queue8 = getelementptr inbounds %struct.EHCIPacket, ptr %12, i32 0, i32 0
  %13 = load ptr, ptr %queue8, align 8
  %14 = load ptr, ptr %p, align 8
  call void @trace_usb_ehci_packet_action(ptr noundef %13, ptr noundef %14, ptr noundef @.str.116)
  %15 = load ptr, ptr %p, align 8
  ret ptr %15
}