; Function Attrs: nounwind sspstrong uwtable
define internal fastcc noundef ptr @ehci_alloc_packet(ptr noundef %q) unnamed_addr #0 {
entry:
  %_now.i.i = alloca %struct.timeval, align 8
  %call = tail call noalias dereferenceable_or_null(248) ptr @g_malloc0_n(i64 noundef 1, i64 noundef 248) #18
  store ptr %q, ptr %call, align 8
  %packet = getelementptr inbounds nuw i8, ptr %call, i64 64
  tail call void @usb_packet_init(ptr noundef nonnull %packet) #17
  %next = getelementptr inbounds nuw i8, ptr %call, i64 8
  store ptr null, ptr %next, align 8
  %tql_prev = getelementptr inbounds nuw i8, ptr %q, i64 128
  %0 = load ptr, ptr %tql_prev, align 8
  %tql_prev2 = getelementptr inbounds nuw i8, ptr %call, i64 16
  store ptr %0, ptr %tql_prev2, align 8
  store ptr %call, ptr %0, align 8
  store ptr %next, ptr %tql_prev, align 8
  %1 = load ptr, ptr %call, align 8
  call void @llvm.lifetime.start.p0(i64 16, ptr nonnull %_now.i.i)
  %2 = load i32, ptr @trace_events_enabled_count, align 4
  %tobool.i.i = icmp ne i32 %2, 0
  %3 = load i16, ptr @_TRACE_USB_EHCI_PACKET_ACTION_DSTATE, align 2
  %tobool4.i.i = icmp ne i16 %3, 0
  %or.cond.i.i = select i1 %tobool.i.i, i1 %tobool4.i.i, i1 false
  br i1 %or.cond.i.i, label %land.lhs.true5.i.i, label %trace_usb_ehci_packet_action.exit

land.lhs.true5.i.i:                               ; preds = %entry
  %4 = load i32, ptr @qemu_loglevel, align 4
  %and.i.i.i = and i32 %4, 32768
  %cmp.i.not.i.i = icmp eq i32 %and.i.i.i, 0
  br i1 %cmp.i.not.i.i, label %trace_usb_ehci_packet_action.exit, label %if.then.i.i

if.then.i.i:                                      ; preds = %land.lhs.true5.i.i
  %5 = load i8, ptr @message_with_timestamp, align 1
  %tobool7.i.i = trunc i8 %5 to i1
  br i1 %tobool7.i.i, label %if.then8.i.i, label %if.else.i.i

if.then8.i.i:                                     ; preds = %if.then.i.i
  %call9.i.i = call i32 @gettimeofday(ptr noundef nonnull %_now.i.i, ptr noundef null) #17
  %call10.i.i = tail call i32 @qemu_get_thread_id() #17
  %6 = load i64, ptr %_now.i.i, align 8
  %tv_usec.i.i = getelementptr inbounds nuw i8, ptr %_now.i.i, i64 8
  %7 = load i64, ptr %tv_usec.i.i, align 8
  tail call void (ptr, ...) @qemu_log(ptr noundef nonnull @.str.86, i32 noundef %call10.i.i, i64 noundef %6, i64 noundef %7, ptr noundef %1, ptr noundef nonnull %call, ptr noundef nonnull @.str.116) #17
  br label %trace_usb_ehci_packet_action.exit

if.else.i.i:                                      ; preds = %if.then.i.i
  tail call void (ptr, ...) @qemu_log(ptr noundef nonnull @.str.87, ptr noundef %1, ptr noundef nonnull %call, ptr noundef nonnull @.str.116) #17
  br label %trace_usb_ehci_packet_action.exit

trace_usb_ehci_packet_action.exit:                ; preds = %entry, %land.lhs.true5.i.i, %if.then8.i.i, %if.else.i.i
  call void @llvm.lifetime.end.p0(i64 16, ptr nonnull %_now.i.i)
  ret ptr %call
}